(lp0
S'poi'
p1
aS'salary'
p2
aS'deferral_payments'
p3
aS'deferred_income'
p4
aS'total_payments'
p5
aS'total_stock_value'
p6
aS'exercised_stock_options'
p7
aS'to_messages'
p8
aS'from_poi_to_this_person'
p9
aS'from_this_person_to_poi'
p10
aS'percent_of_emails_to_poi'
p11
a.