(lp0
S'poi'
p1
aS'deferred_income'
p2
aS'total_payments'
p3
aS'bonus'
p4
aS'total_stock_value'
p5
aS'loan_advances'
p6
aS'exercised_stock_options'
p7
aS'to_messages'
p8
aS'from_this_person_to_poi'
p9
aS'shared_receipt_with_poi'
p10
aS'percent_of_emails_to_poi'
p11
a.