(dp0
cnumpy.core.multiarray
scalar
p1
(cnumpy
dtype
p2
(S'S12'
p3
I0
I1
tp4
Rp5
(I3
S'|'
p6
NNNI12
I1
I0
tp7
bS'HIRKO JOSEPH'
p8
tp9
Rp10
(dp11
S'to_messages'
p12
cnumpy.core.multiarray
_reconstruct
p13
(cnumpy
ndarray
p14
(I0
tp15
S'b'
p16
tp17
Rp18
(I1
(I1
tp19
g2
(S'f8'
p20
I0
I1
tp21
Rp22
(I3
S'<'
p23
NNNI-1
I-1
I0
tp24
bI00
S'\x00\x00\x00\x00\x00\x00\x00\x00'
p25
tp26
bsS'deferral_payments'
p27
g13
(g14
(I0
tp28
g16
tp29
Rp30
(I1
(I1
tp31
g22
I00
S'Q$"\xb0\x03\xaf\x91?'
p32
tp33
bsS'expenses'
p34
g13
(g14
(I0
tp35
g16
tp36
Rp37
(I1
(I1
tp38
g22
I00
S'>\x1cqD\xc8\xd0\xd5?'
p39
tp40
bsS'percent_of_emails_from_poi'
p41
g13
(g14
(I0
tp42
g16
tp43
Rp44
(I1
(I1
tp45
g22
I00
S'\x00\x00\x00\x00\x00\x00\x00\x00'
p46
tp47
bsS'poi'
p48
I01
sS'deferred_income'
p49
g13
(g14
(I0
tp50
g16
tp51
Rp52
(I1
(I1
tp53
g22
I00
S'\x00\x00\x00\x00\x00\x00\xf0?'
p54
tp55
bsS'email_address'
p56
S'joe.hirko@enron.com'
p57
sS'from_poi_to_this_person'
p58
g13
(g14
(I0
tp59
g16
tp60
Rp61
(I1
(I1
tp62
g22
I00
S'\x00\x00\x00\x00\x00\x00\x00\x00'
p63
tp64
bsS'restricted_stock_deferred'
p65
S'NaN'
p66
sS'shared_receipt_with_poi'
p67
g13
(g14
(I0
tp68
g16
tp69
Rp70
(I1
(I1
tp71
g22
I00
S'\x00\x00\x00\x00\x00\x00\x00\x00'
p72
tp73
bsS'loan_advances'
p74
g66
sS'from_messages'
p75
g13
(g14
(I0
tp76
g16
tp77
Rp78
(I1
(I1
tp79
g22
I00
S'\x00\x00\x00\x00\x00\x00\x00\x00'
p80
tp81
bsS'other'
p82
I2856
sS'director_fees'
p83
g66
sS'bonus'
p84
g13
(g14
(I0
tp85
g16
tp86
Rp87
(I1
(I1
tp88
g22
I00
S'\x00\x00\x00\x00\x00\x00\x00\x00'
p89
tp90
bsS'total_stock_value'
p91
g13
(g14
(I0
tp92
g16
tp93
Rp94
(I1
(I1
tp95
g22
I00
S'2{S\xa3\xcc\x0e\xe4?'
p96
tp97
bsS'from_this_person_to_poi'
p98
g13
(g14
(I0
tp99
g16
tp100
Rp101
(I1
(I1
tp102
g22
I00
S'\x00\x00\x00\x00\x00\x00\x00\x00'
p103
tp104
bsS'long_term_incentive'
p105
g13
(g14
(I0
tp106
g16
tp107
Rp108
(I1
(I1
tp109
g22
I00
S'\x00\x00\x00\x00\x00\x00\x00\x00'
p110
tp111
bsS'restricted_stock'
p112
g13
(g14
(I0
tp113
g16
tp114
Rp115
(I1
(I1
tp116
g22
I00
S',\xe9\r\xd2_2\xc3?'
p117
tp118
bsS'salary'
p119
g13
(g14
(I0
tp120
g16
tp121
Rp122
(I1
(I1
tp123
g22
I00
S'\x00\x00\x00\x00\x00\x00\x00\x00'
p124
tp125
bsS'total_payments'
p126
I91093
sS'percent_of_emails_to_poi'
p127
g13
(g14
(I0
tp128
g16
tp129
Rp130
(I1
(I1
tp131
g22
I00
S'\x00\x00\x00\x00\x00\x00\x00\x00'
p132
tp133
bsS'exercised_stock_options'
p134
g13
(g14
(I0
tp135
g16
tp136
Rp137
(I1
(I1
tp138
g22
I00
S'\x01\xe0\x0bC\xa0\xa9\xec?'
p139
tp140
bssg1
(g2
(S'S13'
p141
I0
I1
tp142
Rp143
(I3
S'|'
p144
NNNI13
I1
I0
tp145
bS'LAY KENNETH L'
p146
tp147
Rp148
(dp149
g12
g13
(g14
(I0
tp150
g16
tp151
Rp152
(I1
(I1
tp153
g22
I00
S'E\xf5F\x9dY\r\xd2?'
p154
tp155
bsg27
g13
(g14
(I0
tp156
g16
tp157
Rp158
(I1
(I1
tp159
g22
I00
S'\x0c\x07\xa5C\xc6\xf2\xa7?'
p160
tp161
bsg34
g13
(g14
(I0
tp162
g16
tp163
Rp164
(I1
(I1
tp165
g22
I00
S'\xad\r\x0c\x17\xf7\xed\xdb?'
p166
tp167
bsg41
g13
(g14
(I0
tp168
g16
tp169
Rp170
(I1
(I1
tp171
g22
I00
S'\x85\x89\xf7#\xa7\xf9\xd2?'
p172
tp173
bsg48
I01
sg49
g13
(g14
(I0
tp174
g16
tp175
Rp176
(I1
(I1
tp177
g22
I00
S'\xc7\xd4\x97\x17\xb5B\xed?'
p178
tp179
bsg56
S'kenneth.lay@enron.com'
p180
sg58
g13
(g14
(I0
tp181
g16
tp182
Rp183
(I1
(I1
tp184
g22
I00
S'\xd2E\x17]t\xd1\xcd?'
p185
tp186
bsg65
g66
sg67
g13
(g14
(I0
tp187
g16
tp188
Rp189
(I1
(I1
tp190
g22
I00
S'f\xff\xbc\xd4\xd4\xf2\xdb?'
p191
tp192
bsg74
I81525000
sg75
g13
(g14
(I0
tp193
g16
tp194
Rp195
(I1
(I1
tp196
g22
I00
S'fL\xfa\x89\x8e\x86d?'
p197
tp198
bsg82
I10359729
sg83
g66
sg84
g13
(g14
(I0
tp199
g16
tp200
Rp201
(I1
(I1
tp202
g22
I00
S'\x00\x00\x00\x00\x00\x00\xec?'
p203
tp204
bsg91
g13
(g14
(I0
tp205
g16
tp206
Rp207
(I1
(I1
tp208
g22
I00
S'\x00\x00\x00\x00\x00\x00\xf0?'
p209
tp210
bsg98
g13
(g14
(I0
tp211
g16
tp212
Rp213
(I1
(I1
tp214
g22
I00
S'\t*\x1c\xdd2\xe7\x9a?'
p215
tp216
bsg105
g13
(g14
(I0
tp217
g16
tp218
Rp219
(I1
(I1
tp220
g22
I00
S'\xfd\xf217\x87c\xe6?'
p221
tp222
bsg112
g13
(g14
(I0
tp223
g16
tp224
Rp225
(I1
(I1
tp226
g22
I00
S'\x00\x00\x00\x00\x00\x00\xf0?'
p227
tp228
bsg119
g13
(g14
(I0
tp229
g16
tp230
Rp231
(I1
(I1
tp232
g22
I00
S'\xe6gj\x96\xf6\xe0\xee?'
p233
tp234
bsg126
I103559793
sg127
g13
(g14
(I0
tp235
g16
tp236
Rp237
(I1
(I1
tp238
g22
I00
S'\xe8r\xea\xecGy\x93?'
p239
tp240
bsg134
g13
(g14
(I0
tp241
g16
tp242
Rp243
(I1
(I1
tp244
g22
I00
S'\x00\x00\x00\x00\x00\x00\xf0?'
p245
tp246
bssg1
(g2
(S'S15'
p247
I0
I1
tp248
Rp249
(I3
S'|'
p250
NNNI15
I1
I0
tp251
bS'LAVORATO JOHN J'
p252
tp253
Rp254
(dp255
g12
g13
(g14
(I0
tp256
g16
tp257
Rp258
(I1
(I1
tp259
g22
I00
S'\x8d\x08\xde\x81\xc7\xaa\xde?'
p260
tp261
bsg27
g13
(g14
(I0
tp262
g16
tp263
Rp264
(I1
(I1
tp265
g22
I00
S'x<\r\xa0#\x13\x90?'
p266
tp267
bsg34
g13
(g14
(I0
tp268
g16
tp269
Rp270
(I1
(I1
tp271
g22
I00
S'\x8b\xd0\x9d`\xad\xb7\xcb?'
p272
tp273
bsg41
g13
(g14
(I0
tp274
g16
tp275
Rp276
(I1
(I1
tp277
g22
I00
S'\xc68\xea h&\x92?'
p278
tp279
bsg48
I00
sg49
g13
(g14
(I0
tp280
g16
tp281
Rp282
(I1
(I1
tp283
g22
I00
S'\x00\x00\x00\x00\x00\x00\xf0?'
p284
tp285
bsg56
S'john.lavorato@enron.com'
p286
sg58
g13
(g14
(I0
tp287
g16
tp288
Rp289
(I1
(I1
tp290
g22
I00
S'\x00\x00\x00\x00\x00\x00\xf0?'
p291
tp292
bsg65
g66
sg67
g13
(g14
(I0
tp293
g16
tp294
Rp295
(I1
(I1
tp296
g22
I00
S'+\xba\xc1\xce\xc5\xf6\xe6?'
p297
tp298
bsg74
g66
sg75
g13
(g14
(I0
tp299
g16
tp300
Rp301
(I1
(I1
tp302
g22
I00
S'\x7fa\x95zi\x07\xc7?'
p303
tp304
bsg82
I1552
sg83
g66
sg84
g13
(g14
(I0
tp305
g16
tp306
Rp307
(I1
(I1
tp308
g22
I00
S'\x00\x00\x00\x00\x00\x00\xf0?'
p309
tp310
bsg91
g13
(g14
(I0
tp311
g16
tp312
Rp313
(I1
(I1
tp314
g22
I00
S'\xa4\xa34U\x02$\xbb?'
p315
tp316
bsg98
g13
(g14
(I0
tp317
g16
tp318
Rp319
(I1
(I1
tp320
g22
I00
S'\xbe\x1b~T\x97\x98\xe5?'
p321
tp322
bsg105
g13
(g14
(I0
tp323
g16
tp324
Rp325
(I1
(I1
tp326
g22
I00
S'\x10Z\xaea\x05Q\xd9?'
p327
tp328
bsg112
g13
(g14
(I0
tp329
g16
tp330
Rp331
(I1
(I1
tp332
g22
I00
S'\xbc\x04\xd2\xcf\xa2\xa0\xca?'
p333
tp334
bsg119
g13
(g14
(I0
tp335
g16
tp336
Rp337
(I1
(I1
tp338
g22
I00
S'J\xd7\xc7\x04X\x8a\xd3?'
p339
tp340
bsg126
I10425757
sg127
g13
(g14
(I0
tp341
g16
tp342
Rp343
(I1
(I1
tp344
g22
I00
S'\x8f\x10o\xc6_g\xd2?'
p345
tp346
bsg134
g13
(g14
(I0
tp347
g16
tp348
Rp349
(I1
(I1
tp350
g22
I00
S'`L0\x93F\xff\xbe?'
p351
tp352
bssg1
(g2
(S'S14'
p353
I0
I1
tp354
Rp355
(I3
S'|'
p356
NNNI14
I1
I0
tp357
bS'RICE KENNETH D'
p358
tp359
Rp360
(dp361
g12
g13
(g14
(I0
tp362
g16
tp363
Rp364
(I1
(I1
tp365
g22
I00
S'}\x8a\x11\xfa:\x96\xae?'
p366
tp367
bsg27
g13
(g14
(I0
tp368
g16
tp369
Rp370
(I1
(I1
tp371
g22
I00
S'x<\r\xa0#\x13\x90?'
p372
tp373
bsg34
g13
(g14
(I0
tp374
g16
tp375
Rp376
(I1
(I1
tp377
g22
I00
S'\xed/;\x92\x1dE\xca?'
p378
tp379
bsg41
g13
(g14
(I0
tp380
g16
tp381
Rp382
(I1
(I1
tp383
g22
I00
S'\xbd\x1f9\xcd\xd7\xea\xc9?'
p384
tp385
bsg48
I01
sg49
g13
(g14
(I0
tp386
g16
tp387
Rp388
(I1
(I1
tp389
g22
I00
S'\x00\x00\x00\x00\x00\x00\x00\x00'
p390
tp391
bsg56
S'ken.rice@enron.com'
p392
sg58
g13
(g14
(I0
tp393
g16
tp394
Rp395
(I1
(I1
tp396
g22
I00
S']t\xd1E\x17]\xb4?'
p397
tp398
bsg65
g66
sg67
g13
(g14
(I0
tp399
g16
tp400
Rp401
(I1
(I1
tp402
g22
I00
S'\xa2+\xa3\xb1\xf9\x07\xc4?'
p403
tp404
bsg74
g66
sg75
g13
(g14
(I0
tp405
g16
tp406
Rp407
(I1
(I1
tp408
g22
I00
S'fL\xfa\x89\x8e\x86T?'
p409
tp410
bsg82
I174839
sg83
g66
sg84
g13
(g14
(I0
tp411
g16
tp412
Rp413
(I1
(I1
tp414
g22
I00
S'\x00\x00\x00\x00\x00\x00\xcc?'
p415
tp416
bsg91
g13
(g14
(I0
tp417
g16
tp418
Rp419
(I1
(I1
tp420
g22
I00
S'\xd9%Jx\x8bh\xdd?'
p421
tp422
bsg98
g13
(g14
(I0
tp423
g16
tp424
Rp425
(I1
(I1
tp426
g22
I00
S'\t*\x1c\xdd2\xe7z?'
p427
tp428
bsg105
g13
(g14
(I0
tp429
g16
tp430
Rp431
(I1
(I1
tp432
g22
I00
S'*=\xd2\x9b\xdb\x1c\xd4?'
p433
tp434
bsg112
g13
(g14
(I0
tp435
g16
tp436
Rp437
(I1
(I1
tp438
g22
I00
S"&\xc5'v\x1c\xba\xd3?"
p439
tp440
bsg119
g13
(g14
(I0
tp441
g16
tp442
Rp443
(I1
(I1
tp444
g22
I00
S'h\x02\x8c\xd8\xb59\xd8?'
p445
tp446
bsg126
I505050
sg127
g13
(g14
(I0
tp447
g16
tp448
Rp449
(I1
(I1
tp450
g22
I00
S'\xb8b\r>\x8f\xfc\x96?'
p451
tp452
bsg134
g13
(g14
(I0
tp453
g16
tp454
Rp455
(I1
(I1
tp456
g22
I00
S'\xaf\x06\xc9\xee\xdbp\xe2?'
p457
tp458
bssg1
(g2
(S'S16'
p459
I0
I1
tp460
Rp461
(I3
S'|'
p462
NNNI16
I1
I0
tp463
bS'BELDEN TIMOTHY N'
p464
tp465
Rp466
(dp467
g12
g13
(g14
(I0
tp468
g16
tp469
Rp470
(I1
(I1
tp471
g22
I00
S'\xf3\xf9\xbd.:\xe1\xe0?'
p472
tp473
bsg27
g13
(g14
(I0
tp474
g16
tp475
Rp476
(I1
(I1
tp477
g22
I00
S'R\x15\x90?\x05\x05\xd6?'
p478
tp479
bsg34
g13
(g14
(I0
tp480
g16
tp481
Rp482
(I1
(I1
tp483
g22
I00
S'\x90\x13\xa8\xca\xdbk\xb3?'
p484
tp485
bsg41
g13
(g14
(I0
tp486
g16
tp487
Rp488
(I1
(I1
tp489
g22
I00
S',UI\xfe\x01\xee\xa4?'
p490
tp491
bsg48
I01
sg49
g13
(g14
(I0
tp492
g16
tp493
Rp494
(I1
(I1
tp495
g22
I00
S'\xb0\x17\x9a\xa1\xdb]\xd5?'
p496
tp497
bsg56
S'tim.belden@enron.com'
p498
sg58
g13
(g14
(I0
tp499
g16
tp500
Rp501
(I1
(I1
tp502
g22
I00
S'\xa3\x8b.\xba\xe8\xa2\xdb?'
p503
tp504
bsg65
g66
sg67
g13
(g14
(I0
tp505
g16
tp506
Rp507
(I1
(I1
tp508
g22
I00
S'\x00\x00\x00\x00\x00\x00\xf0?'
p509
tp510
bsg74
g66
sg75
g13
(g14
(I0
tp511
g16
tp512
Rp513
(I1
(I1
tp514
g22
I00
S'\x16\x19\xd4\x8cI?\xa1?'
p515
tp516
bsg82
I210698
sg83
g66
sg84
g13
(g14
(I0
tp517
g16
tp518
Rp519
(I1
(I1
tp520
g22
I00
S'}!\xe4\xbc\xff\xff\xe4?'
p521
tp522
bsg91
g13
(g14
(I0
tp523
g16
tp524
Rp525
(I1
(I1
tp526
g22
I00
S'\xcdU\xa4\x90\xa6\x0e\x98?'
p527
tp528
bsg98
g13
(g14
(I0
tp529
g16
tp530
Rp531
(I1
(I1
tp532
g22
I00
S'x\xc3\x8f\xea\x12\xb3\xc6?'
p533
tp534
bsg105
g13
(g14
(I0
tp535
g16
tp536
Rp537
(I1
(I1
tp538
g22
I00
S'\x00\x00\x00\x00\x00\x00\x00\x00'
p539
tp540
bsg112
g13
(g14
(I0
tp541
g16
tp542
Rp543
(I1
(I1
tp544
g22
I00
S'\xee\x9c<_\xb0[\xc4?'
p545
tp546
bsg119
g13
(g14
(I0
tp547
g16
tp548
Rp549
(I1
(I1
tp550
g22
I00
S'\xb0\xa6\xb9\xca@\xa6\xc8?'
p551
tp552
bsg126
I5501630
sg127
g13
(g14
(I0
tp553
g16
tp554
Rp555
(I1
(I1
tp556
g22
I00
S'\xb0\xd1hBy\x92\xb1?'
p557
tp558
bsg134
g13
(g14
(I0
tp559
g16
tp560
Rp561
(I1
(I1
tp562
g22
I00
S'\xa6\xb2\x9f Aj\x9c?'
p563
tp564
bssg1
(g2
(S'S15'
p565
I0
I1
tp566
Rp567
(I3
S'|'
p568
NNNI15
I1
I0
tp569
bS'ALLEN PHILLIP K'
p570
tp571
Rp572
(dp573
g12
g13
(g14
(I0
tp574
g16
tp575
Rp576
(I1
(I1
tp577
g22
I00
S'\x0b{+\x9f)\x85\xc8?'
p578
tp579
bsg27
g13
(g14
(I0
tp580
g16
tp581
Rp582
(I1
(I1
tp583
g22
I00
S'6e*\xc8\xfa!\xdd?'
p584
tp585
bsg34
g13
(g14
(I0
tp586
g16
tp587
Rp588
(I1
(I1
tp589
g22
I00
S'\xd6#^l\xce\t\xaf?'
p590
tp591
bsg41
g13
(g14
(I0
tp592
g16
tp593
Rp594
(I1
(I1
tp595
g22
I00
S'\xcb\x90\x0fQgq^?'
p596
tp597
bsg48
I00
sg49
g13
(g14
(I0
tp598
g16
tp599
Rp600
(I1
(I1
tp601
g22
I00
S'P\xdb\xc6L\xc5\xec\xbe?'
p602
tp603
bsg56
S'phillip.allen@enron.com'
p604
sg58
g13
(g14
(I0
tp605
g16
tp606
Rp607
(I1
(I1
tp608
g22
I00
S'\xca&\x9bl\xb2\xc9\xb6?'
p609
tp610
bsg65
I-126027
sg67
g13
(g14
(I0
tp611
g16
tp612
Rp613
(I1
(I1
tp614
g22
I00
S'\xf9\xdb\xf8\xf9aO\xd0?'
p615
tp616
bsg74
g66
sg75
g13
(g14
(I0
tp617
g16
tp618
Rp619
(I1
(I1
tp620
g22
I00
S'\xe6\xad\x8f\x04\xf8\x8d\xc3?'
p621
tp622
bsg82
I152
sg83
g66
sg84
g13
(g14
(I0
tp623
g16
tp624
Rp625
(I1
(I1
tp626
g22
I00
S'33333\xb3\xe0?'
p627
tp628
bsg91
g13
(g14
(I0
tp629
g16
tp630
Rp631
(I1
(I1
tp632
g22
I00
S'k\xe7AU{y\xa2?'
p633
tp634
bsg98
g13
(g14
(I0
tp635
g16
tp636
Rp637
(I1
(I1
tp638
g22
I00
S'\xb1\x9a\x90\xa8\xcfR\xbb?'
p639
tp640
bsg105
g13
(g14
(I0
tp641
g16
tp642
Rp643
(I1
(I1
tp644
g22
I00
S'\x8f\xc0D\x03pT\xae?'
p645
tp646
bsg112
g13
(g14
(I0
tp647
g16
tp648
Rp649
(I1
(I1
tp650
g22
I00
S'\xee(k=, \xc4?'
p651
tp652
bsg119
g13
(g14
(I0
tp653
g16
tp654
Rp655
(I1
(I1
tp656
g22
I00
S';\xb2\xe6\xa7\x1bC\xc7?'
p657
tp658
bsg126
I4484442
sg127
g13
(g14
(I0
tp659
g16
tp660
Rp661
(I1
(I1
tp662
g22
I00
S'\xaaU\xfb\xb7/\x1f\xbd?'
p663
tp664
bsg134
g13
(g14
(I0
tp665
g16
tp666
Rp667
(I1
(I1
tp668
g22
I00
S'\xfc6\\5\xdb\xc7\xa9?'
p669
tp670
bss.